; Function Attrs: uwtable
define void @_ZThn56_N8QuantLib30FdHestonHullWhiteVanillaEngine6updateEv(ptr noundef %this) unnamed_addr #17 align 2 personality ptr @__gxx_personality_v0 {
entry:
  %cachedArgs2results_.i = getelementptr inbounds i8, ptr %this, i64 440
  %0 = load ptr, ptr %cachedArgs2results_.i, align 8, !tbaa !225
  %_M_finish.i.i.i = getelementptr inbounds i8, ptr %this, i64 448
  %1 = load ptr, ptr %_M_finish.i.i.i, align 8, !tbaa !224
  %tobool.not.i.i.i = icmp eq ptr %1, %0
  br i1 %tobool.not.i.i.i, label %_ZN8QuantLib30FdHestonHullWhiteVanillaEngine6updateEv.exit, label %if.then.i.i.i

if.then.i.i.i:                                    ; preds = %entry
  invoke void @_ZNSt12_Destroy_auxILb0EE9__destroyIPSt4pairIN8QuantLib6Option9argumentsENS3_14OneAssetOption7resultsEEEEvT_SA_(ptr noundef %0, ptr noundef %1)
          to label %invoke.cont.i.i.i unwind label %terminate.lpad.i.i.i

invoke.cont.i.i.i:                                ; preds = %if.then.i.i.i
  store ptr %0, ptr %_M_finish.i.i.i, align 8, !tbaa !224
  br label %_ZN8QuantLib30FdHestonHullWhiteVanillaEngine6updateEv.exit

terminate.lpad.i.i.i:                             ; preds = %if.then.i.i.i
  %2 = landingpad { ptr, i32 }
          catch ptr null
  %3 = extractvalue { ptr, i32 } %2, 0
  tail call void @__clang_call_terminate(ptr %3) #28
  unreachable

_ZN8QuantLib30FdHestonHullWhiteVanillaEngine6updateEv.exit: ; preds = %entry, %invoke.cont.i.i.i
  %4 = getelementptr inbounds i8, ptr %this, i64 -56
  tail call void @_ZN8QuantLib10Observable15notifyObserversEv(ptr noundef nonnull align 8 dereferenceable(56) %4)
  ret void
}